target datalayout = "e-m:e-p270:32:32-p271:32:32-p272:64:64-i64:64-i128:128-f80:128-n8:16:32:64-S128"
target triple = "x86_64-pc-linux-gnu"

%"class.net::SpdyFramerVisitorAdapter" = type { %"class.net::SpdyFramerVisitorInterface", ptr, ptr }
%"class.net::SpdyFramerVisitorInterface" = type { ptr }

; Function Attrs: mustprogress uwtable
define void @_ZN3net24SpdyFramerVisitorAdapter8OnGoAwayEjNS_16SpdyGoAwayStatusE(ptr noundef nonnull align 8 dereferenceable(24) %0, i32 noundef %1, i32 noundef %2) unnamed_addr #2 align 2 {
  %4 = alloca ptr, align 8
  %5 = alloca i32, align 4
  %6 = alloca i32, align 4
  store ptr %0, ptr %4, align 8, !tbaa !22
  store i32 %1, ptr %5, align 4, !tbaa !30
  store i32 %2, ptr %6, align 4, !tbaa !41
  %7 = load ptr, ptr %4, align 8
  %8 = getelementptr inbounds nuw %"class.net::SpdyFramerVisitorAdapter", ptr %7, i32 0, i32 1
  %9 = load ptr, ptr %8, align 8, !tbaa !26
  %10 = load i32, ptr %5, align 4, !tbaa !30
  %11 = load i32, ptr %6, align 4, !tbaa !41
  %12 = load ptr, ptr %9, align 8, !tbaa !8
  %13 = getelementptr inbounds ptr, ptr %12, i64 19
  %14 = load ptr, ptr %13, align 8
  call void %14(ptr noundef nonnull align 8 dereferenceable(8) %9, i32 noundef %10, i32 noundef %11)
  ret void
}